target datalayout = "e-m:e-p270:32:32-p271:32:32-p272:64:64-i64:64-i128:128-f80:128-n8:16:32:64-S128"
target triple = "x86_64-pc-linux-gnu"

%struct.TM2Context = type { ptr, ptr, %struct.GetBitContext, i32, %struct.BswapDSPContext, ptr, i32, [7 x ptr], [7 x i32], [7 x i32], [7 x [64 x i32]], [4 x i32], [4 x i32], ptr, ptr, ptr, ptr, ptr, ptr, ptr, ptr, ptr, ptr, i32, i32, i32 }
%struct.GetBitContext = type { ptr, ptr, i32, i32, i32 }
%struct.BswapDSPContext = type { ptr, ptr }
%struct.TM2Huff = type { i32, i32, i32, i32, i32, i32, ptr, ptr }

@.str.20 = private unnamed_addr constant [36 x i8] c"Tree exceeded its given depth (%i)\0A\00", align 1
@.str.21 = private unnamed_addr constant [19 x i8] c"Too many literals\0A\00", align 1

; Function Attrs: alwaysinline nounwind willreturn memory(none) uwtable
define internal i32 @av_bswap32(i32 noundef %0) #8 {
  %2 = alloca i32, align 4
  store i32 %0, ptr %2, align 4, !tbaa !32
  %3 = load i32, ptr %2, align 4, !tbaa !32
  %4 = shl i32 %3, 8
  %5 = and i32 %4, 65280
  %6 = load i32, ptr %2, align 4, !tbaa !32
  %7 = lshr i32 %6, 8
  %8 = and i32 %7, 255
  %9 = or i32 %5, %8
  %10 = shl i32 %9, 16
  %11 = load i32, ptr %2, align 4, !tbaa !32
  %12 = lshr i32 %11, 16
  %13 = shl i32 %12, 8
  %14 = and i32 %13, 65280
  %15 = load i32, ptr %2, align 4, !tbaa !32
  %16 = lshr i32 %15, 16
  %17 = lshr i32 %16, 8
  %18 = and i32 %17, 255
  %19 = or i32 %14, %18
  %20 = or i32 %10, %19
  ret i32 %20
}

; Function Attrs: inlinehint nounwind uwtable
define internal i32 @get_bits(ptr noundef %0, i32 noundef %1) #4 {
  %3 = alloca ptr, align 8
  %4 = alloca i32, align 4
  %5 = alloca i32, align 4
  %6 = alloca i32, align 4
  %7 = alloca i32, align 4
  %8 = alloca i32, align 4
  store ptr %0, ptr %3, align 8, !tbaa !93
  store i32 %1, ptr %4, align 4, !tbaa !32
  call void @llvm.lifetime.start.p0(i64 4, ptr %5) #10
  call void @llvm.lifetime.start.p0(i64 4, ptr %6) #10
  %9 = load ptr, ptr %3, align 8, !tbaa !93
  %10 = getelementptr inbounds nuw %struct.GetBitContext, ptr %9, i32 0, i32 2
  %11 = load i32, ptr %10, align 8, !tbaa !99
  store i32 %11, ptr %6, align 4, !tbaa !32
  call void @llvm.lifetime.start.p0(i64 4, ptr %7) #10
  call void @llvm.lifetime.start.p0(i64 4, ptr %8) #10
  %12 = load ptr, ptr %3, align 8, !tbaa !93
  %13 = getelementptr inbounds nuw %struct.GetBitContext, ptr %12, i32 0, i32 4
  %14 = load i32, ptr %13, align 8, !tbaa !97
  store i32 %14, ptr %8, align 4, !tbaa !32
  %15 = load ptr, ptr %3, align 8, !tbaa !93
  %16 = getelementptr inbounds nuw %struct.GetBitContext, ptr %15, i32 0, i32 0
  %17 = load ptr, ptr %16, align 8, !tbaa !95
  %18 = load i32, ptr %6, align 4, !tbaa !32
  %19 = lshr i32 %18, 3
  %20 = zext i32 %19 to i64
  %21 = getelementptr inbounds nuw i8, ptr %17, i64 %20
  %22 = load i32, ptr %21, align 1, !tbaa !75
  %23 = call i32 @av_bswap32(i32 noundef %22) #11
  %24 = load i32, ptr %6, align 4, !tbaa !32
  %25 = and i32 %24, 7
  %26 = shl i32 %23, %25
  %27 = lshr i32 %26, 0
  store i32 %27, ptr %7, align 4, !tbaa !32
  %28 = load i32, ptr %7, align 4, !tbaa !32
  %29 = load i32, ptr %4, align 4, !tbaa !32
  %30 = sub nsw i32 32, %29
  %31 = lshr i32 %28, %30
  store i32 %31, ptr %5, align 4, !tbaa !32
  %32 = load i32, ptr %8, align 4, !tbaa !32
  %33 = load i32, ptr %6, align 4, !tbaa !32
  %34 = load i32, ptr %4, align 4, !tbaa !32
  %35 = add i32 %33, %34
  %36 = icmp ugt i32 %32, %35
  br i1 %36, label %37, label %41

37:                                               ; preds = %2
  %38 = load i32, ptr %6, align 4, !tbaa !32
  %39 = load i32, ptr %4, align 4, !tbaa !32
  %40 = add i32 %38, %39
  br label %43

41:                                               ; preds = %2
  %42 = load i32, ptr %8, align 4, !tbaa !32
  br label %43

43:                                               ; preds = %41, %37
  %44 = phi i32 [ %40, %37 ], [ %42, %41 ]
  store i32 %44, ptr %6, align 4, !tbaa !32
  %45 = load i32, ptr %6, align 4, !tbaa !32
  %46 = load ptr, ptr %3, align 8, !tbaa !93
  %47 = getelementptr inbounds nuw %struct.GetBitContext, ptr %46, i32 0, i32 2
  store i32 %45, ptr %47, align 8, !tbaa !99
  %48 = load i32, ptr %5, align 4, !tbaa !32
  call void @llvm.lifetime.end.p0(i64 4, ptr %8) #10
  call void @llvm.lifetime.end.p0(i64 4, ptr %7) #10
  call void @llvm.lifetime.end.p0(i64 4, ptr %6) #10
  call void @llvm.lifetime.end.p0(i64 4, ptr %5) #10
  ret i32 %48
}

; Function Attrs: inlinehint nounwind uwtable
define internal i32 @get_bits_long(ptr noundef %0, i32 noundef %1) #4 {
  %3 = alloca i32, align 4
  %4 = alloca ptr, align 8
  %5 = alloca i32, align 4
  %6 = alloca i32, align 4
  store ptr %0, ptr %4, align 8, !tbaa !93
  store i32 %1, ptr %5, align 4, !tbaa !32
  %7 = load i32, ptr %5, align 4, !tbaa !32
  %8 = icmp ne i32 %7, 0
  br i1 %8, label %10, label %9

9:                                                ; preds = %2
  store i32 0, ptr %3, align 4
  br label %29

10:                                               ; preds = %2
  %11 = load i32, ptr %5, align 4, !tbaa !32
  %12 = icmp sle i32 %11, 25
  br i1 %12, label %13, label %17

13:                                               ; preds = %10
  %14 = load ptr, ptr %4, align 8, !tbaa !93
  %15 = load i32, ptr %5, align 4, !tbaa !32
  %16 = call i32 @get_bits(ptr noundef %14, i32 noundef %15)
  store i32 %16, ptr %3, align 4
  br label %29

17:                                               ; preds = %10
  call void @llvm.lifetime.start.p0(i64 4, ptr %6) #10
  %18 = load ptr, ptr %4, align 8, !tbaa !93
  %19 = call i32 @get_bits(ptr noundef %18, i32 noundef 16)
  %20 = load i32, ptr %5, align 4, !tbaa !32
  %21 = sub nsw i32 %20, 16
  %22 = shl i32 %19, %21
  store i32 %22, ptr %6, align 4, !tbaa !32
  %23 = load i32, ptr %6, align 4, !tbaa !32
  %24 = load ptr, ptr %4, align 8, !tbaa !93
  %25 = load i32, ptr %5, align 4, !tbaa !32
  %26 = sub nsw i32 %25, 16
  %27 = call i32 @get_bits(ptr noundef %24, i32 noundef %26)
  %28 = or i32 %23, %27
  store i32 %28, ptr %3, align 4
  call void @llvm.lifetime.end.p0(i64 4, ptr %6) #10
  br label %29

29:                                               ; preds = %17, %13, %9
  %30 = load i32, ptr %3, align 4
  ret i32 %30
}

; Function Attrs: inlinehint nounwind uwtable
define internal i32 @get_bits1(ptr noundef %0) #4 {
  %2 = alloca ptr, align 8
  %3 = alloca i32, align 4
  %4 = alloca i8, align 1
  store ptr %0, ptr %2, align 8, !tbaa !93
  call void @llvm.lifetime.start.p0(i64 4, ptr %3) #10
  %5 = load ptr, ptr %2, align 8, !tbaa !93
  %6 = getelementptr inbounds nuw %struct.GetBitContext, ptr %5, i32 0, i32 2
  %7 = load i32, ptr %6, align 8, !tbaa !99
  store i32 %7, ptr %3, align 4, !tbaa !32
  call void @llvm.lifetime.start.p0(i64 1, ptr %4) #10
  %8 = load ptr, ptr %2, align 8, !tbaa !93
  %9 = getelementptr inbounds nuw %struct.GetBitContext, ptr %8, i32 0, i32 0
  %10 = load ptr, ptr %9, align 8, !tbaa !95
  %11 = load i32, ptr %3, align 4, !tbaa !32
  %12 = lshr i32 %11, 3
  %13 = zext i32 %12 to i64
  %14 = getelementptr inbounds nuw i8, ptr %10, i64 %13
  %15 = load i8, ptr %14, align 1, !tbaa !75
  store i8 %15, ptr %4, align 1, !tbaa !75
  %16 = load i32, ptr %3, align 4, !tbaa !32
  %17 = and i32 %16, 7
  %18 = load i8, ptr %4, align 1, !tbaa !75
  %19 = zext i8 %18 to i32
  %20 = shl i32 %19, %17
  %21 = trunc i32 %20 to i8
  store i8 %21, ptr %4, align 1, !tbaa !75
  %22 = load i8, ptr %4, align 1, !tbaa !75
  %23 = zext i8 %22 to i32
  %24 = ashr i32 %23, 7
  %25 = trunc i32 %24 to i8
  store i8 %25, ptr %4, align 1, !tbaa !75
  %26 = load ptr, ptr %2, align 8, !tbaa !93
  %27 = getelementptr inbounds nuw %struct.GetBitContext, ptr %26, i32 0, i32 2
  %28 = load i32, ptr %27, align 8, !tbaa !99
  %29 = load ptr, ptr %2, align 8, !tbaa !93
  %30 = getelementptr inbounds nuw %struct.GetBitContext, ptr %29, i32 0, i32 4
  %31 = load i32, ptr %30, align 8, !tbaa !97
  %32 = icmp slt i32 %28, %31
  br i1 %32, label %33, label %36

33:                                               ; preds = %1
  %34 = load i32, ptr %3, align 4, !tbaa !32
  %35 = add i32 %34, 1
  store i32 %35, ptr %3, align 4, !tbaa !32
  br label %36

36:                                               ; preds = %33, %1
  %37 = load i32, ptr %3, align 4, !tbaa !32
  %38 = load ptr, ptr %2, align 8, !tbaa !93
  %39 = getelementptr inbounds nuw %struct.GetBitContext, ptr %38, i32 0, i32 2
  store i32 %37, ptr %39, align 8, !tbaa !99
  %40 = load i8, ptr %4, align 1, !tbaa !75
  %41 = zext i8 %40 to i32
  call void @llvm.lifetime.end.p0(i64 1, ptr %4) #10
  call void @llvm.lifetime.end.p0(i64 4, ptr %3) #10
  ret i32 %41
}

; Function Attrs: nounwind uwtable
define internal i32 @tm2_read_tree(ptr noundef %0, i32 noundef %1, ptr noundef %2) #1 {
  %4 = alloca i32, align 4
  %5 = alloca ptr, align 8
  %6 = alloca i32, align 4
  %7 = alloca ptr, align 8
  %8 = alloca i32, align 4
  %9 = alloca i32, align 4
  %10 = alloca i32, align 4
  store ptr %0, ptr %5, align 8, !tbaa !29
  store i32 %1, ptr %6, align 4, !tbaa !32
  store ptr %2, ptr %7, align 8, !tbaa !117
  call void @llvm.lifetime.start.p0(i64 4, ptr %8) #10
  call void @llvm.lifetime.start.p0(i64 4, ptr %9) #10
  %11 = load i32, ptr %6, align 4, !tbaa !32
  %12 = load ptr, ptr %7, align 8, !tbaa !117
  %13 = getelementptr inbounds nuw %struct.TM2Huff, ptr %12, i32 0, i32 1
  %14 = load i32, ptr %13, align 4, !tbaa !106
  %15 = icmp sgt i32 %11, %14
  br i1 %15, label %16, label %23

16:                                               ; preds = %3
  %17 = load ptr, ptr %5, align 8, !tbaa !29
  %18 = getelementptr inbounds nuw %struct.TM2Context, ptr %17, i32 0, i32 0
  %19 = load ptr, ptr %18, align 8, !tbaa !34
  %20 = load ptr, ptr %7, align 8, !tbaa !117
  %21 = getelementptr inbounds nuw %struct.TM2Huff, ptr %20, i32 0, i32 1
  %22 = load i32, ptr %21, align 4, !tbaa !106
  call void (ptr, i32, ptr, ...) @av_log(ptr noundef %19, i32 noundef 16, ptr noundef @.str.20, i32 noundef %22)
  store i32 -1094995529, ptr %4, align 4
  store i32 1, ptr %10, align 4
  br label %103

23:                                               ; preds = %3
  %24 = load ptr, ptr %5, align 8, !tbaa !29
  %25 = getelementptr inbounds nuw %struct.TM2Context, ptr %24, i32 0, i32 2
  %26 = call i32 @get_bits1(ptr noundef %25)
  %27 = icmp ne i32 %26, 0
  br i1 %27, label %74, label %28

28:                                               ; preds = %23
  %29 = load i32, ptr %6, align 4, !tbaa !32
  %30 = icmp eq i32 %29, 0
  br i1 %30, label %31, label %32

31:                                               ; preds = %28
  store i32 1, ptr %6, align 4, !tbaa !32
  br label %32

32:                                               ; preds = %31, %28
  %33 = load ptr, ptr %7, align 8, !tbaa !117
  %34 = getelementptr inbounds nuw %struct.TM2Huff, ptr %33, i32 0, i32 4
  %35 = load i32, ptr %34, align 8, !tbaa !109
  %36 = load ptr, ptr %7, align 8, !tbaa !117
  %37 = getelementptr inbounds nuw %struct.TM2Huff, ptr %36, i32 0, i32 5
  %38 = load i32, ptr %37, align 4, !tbaa !110
  %39 = icmp sge i32 %35, %38
  br i1 %39, label %40, label %44

40:                                               ; preds = %32
  %41 = load ptr, ptr %5, align 8, !tbaa !29
  %42 = getelementptr inbounds nuw %struct.TM2Context, ptr %41, i32 0, i32 0
  %43 = load ptr, ptr %42, align 8, !tbaa !34
  call void (ptr, i32, ptr, ...) @av_log(ptr noundef %43, i32 noundef 48, ptr noundef @.str.21)
  store i32 -1094995529, ptr %4, align 4
  store i32 1, ptr %10, align 4
  br label %103

44:                                               ; preds = %32
  %45 = load ptr, ptr %5, align 8, !tbaa !29
  %46 = getelementptr inbounds nuw %struct.TM2Context, ptr %45, i32 0, i32 2
  %47 = load ptr, ptr %7, align 8, !tbaa !117
  %48 = getelementptr inbounds nuw %struct.TM2Huff, ptr %47, i32 0, i32 0
  %49 = load i32, ptr %48, align 8, !tbaa !104
  %50 = call i32 @get_bits_long(ptr noundef %46, i32 noundef %49)
  %51 = load ptr, ptr %7, align 8, !tbaa !117
  %52 = getelementptr inbounds nuw %struct.TM2Huff, ptr %51, i32 0, i32 6
  %53 = load ptr, ptr %52, align 8, !tbaa !111
  %54 = load ptr, ptr %7, align 8, !tbaa !117
  %55 = getelementptr inbounds nuw %struct.TM2Huff, ptr %54, i32 0, i32 4
  %56 = load i32, ptr %55, align 8, !tbaa !109
  %57 = sext i32 %56 to i64
  %58 = getelementptr inbounds i32, ptr %53, i64 %57
  store i32 %50, ptr %58, align 4, !tbaa !32
  %59 = load i32, ptr %6, align 4, !tbaa !32
  %60 = trunc i32 %59 to i8
  %61 = load ptr, ptr %7, align 8, !tbaa !117
  %62 = getelementptr inbounds nuw %struct.TM2Huff, ptr %61, i32 0, i32 7
  %63 = load ptr, ptr %62, align 8, !tbaa !112
  %64 = load ptr, ptr %7, align 8, !tbaa !117
  %65 = getelementptr inbounds nuw %struct.TM2Huff, ptr %64, i32 0, i32 4
  %66 = load i32, ptr %65, align 8, !tbaa !109
  %67 = sext i32 %66 to i64
  %68 = getelementptr inbounds i8, ptr %63, i64 %67
  store i8 %60, ptr %68, align 1, !tbaa !75
  %69 = load ptr, ptr %7, align 8, !tbaa !117
  %70 = getelementptr inbounds nuw %struct.TM2Huff, ptr %69, i32 0, i32 4
  %71 = load i32, ptr %70, align 8, !tbaa !109
  %72 = add nsw i32 %71, 1
  store i32 %72, ptr %70, align 8, !tbaa !109
  %73 = load i32, ptr %6, align 4, !tbaa !32
  store i32 %73, ptr %4, align 4
  store i32 1, ptr %10, align 4
  br label %103

74:                                               ; preds = %23
  %75 = load ptr, ptr %5, align 8, !tbaa !29
  %76 = load i32, ptr %6, align 4, !tbaa !32
  %77 = add nsw i32 %76, 1
  %78 = load ptr, ptr %7, align 8, !tbaa !117
  %79 = call i32 @tm2_read_tree(ptr noundef %75, i32 noundef %77, ptr noundef %78)
  store i32 %79, ptr %9, align 4, !tbaa !32
  %80 = icmp slt i32 %79, 0
  br i1 %80, label %81, label %83

81:                                               ; preds = %74
  %82 = load i32, ptr %9, align 4, !tbaa !32
  store i32 %82, ptr %4, align 4
  store i32 1, ptr %10, align 4
  br label %103

83:                                               ; preds = %74
  %84 = load ptr, ptr %5, align 8, !tbaa !29
  %85 = load i32, ptr %6, align 4, !tbaa !32
  %86 = add nsw i32 %85, 1
  %87 = load ptr, ptr %7, align 8, !tbaa !117
  %88 = call i32 @tm2_read_tree(ptr noundef %84, i32 noundef %86, ptr noundef %87)
  store i32 %88, ptr %8, align 4, !tbaa !32
  %89 = icmp slt i32 %88, 0
  br i1 %89, label %90, label %92

90:                                               ; preds = %83
  %91 = load i32, ptr %8, align 4, !tbaa !32
  store i32 %91, ptr %4, align 4
  store i32 1, ptr %10, align 4
  br label %103

92:                                               ; preds = %83
  br label %93

93:                                               ; preds = %92
  %94 = load i32, ptr %8, align 4, !tbaa !32
  %95 = load i32, ptr %9, align 4, !tbaa !32
  %96 = icmp sgt i32 %94, %95
  br i1 %96, label %97, label %99

97:                                               ; preds = %93
  %98 = load i32, ptr %8, align 4, !tbaa !32
  br label %101

99:                                               ; preds = %93
  %100 = load i32, ptr %9, align 4, !tbaa !32
  br label %101

101:                                              ; preds = %99, %97
  %102 = phi i32 [ %98, %97 ], [ %100, %99 ]
  store i32 %102, ptr %4, align 4
  store i32 1, ptr %10, align 4
  br label %103

103:                                              ; preds = %101, %90, %81, %44, %40, %16
  call void @llvm.lifetime.end.p0(i64 4, ptr %9) #10
  call void @llvm.lifetime.end.p0(i64 4, ptr %8) #10
  %104 = load i32, ptr %4, align 4
  ret i32 %104
}