; Function Attrs: nounwind uwtable
define internal fastcc range(i32 1, 0) i32 @tm2_read_tree(ptr noundef %0, i32 noundef %1, ptr noundef nonnull %2) unnamed_addr #1 {
  %4 = getelementptr inbounds nuw i8, ptr %2, i64 4
  %5 = load i32, ptr %4, align 4, !tbaa !64
  %6 = icmp sgt i32 %1, %5
  br i1 %6, label %7, label %9

7:                                                ; preds = %3
  %8 = load ptr, ptr %0, align 8, !tbaa !29
  tail call void (ptr, i32, ptr, ...) @av_log(ptr noundef %8, i32 noundef 16, ptr noundef nonnull @.str.20, i32 noundef %5) #8
  br label %88

9:                                                ; preds = %3
  %10 = getelementptr inbounds nuw i8, ptr %0, i64 16
  %11 = getelementptr inbounds nuw i8, ptr %0, i64 32
  %12 = load i32, ptr %11, align 8, !tbaa !61
  %13 = load ptr, ptr %10, align 8, !tbaa !57
  %14 = lshr i32 %12, 3
  %15 = zext nneg i32 %14 to i64
  %16 = getelementptr inbounds nuw i8, ptr %13, i64 %15
  %17 = load i8, ptr %16, align 1, !tbaa !55
  %18 = getelementptr inbounds nuw i8, ptr %0, i64 40
  %19 = load i32, ptr %18, align 8, !tbaa !59
  %20 = icmp slt i32 %12, %19
  %21 = zext i1 %20 to i32
  %spec.select.i = add i32 %12, %21
  %22 = zext i8 %17 to i32
  %23 = and i32 %12, 7
  store i32 %spec.select.i, ptr %11, align 8, !tbaa !61
  %24 = lshr exact i32 128, %23
  %25 = and i32 %24, %22
  %.not = icmp eq i32 %25, 0
  br i1 %.not, label %26, label %79

26:                                               ; preds = %9
  %27 = getelementptr inbounds nuw i8, ptr %2, i64 16
  %28 = load i32, ptr %27, align 8, !tbaa !67
  %29 = getelementptr inbounds nuw i8, ptr %2, i64 20
  %30 = load i32, ptr %29, align 4, !tbaa !68
  %.not35 = icmp slt i32 %28, %30
  br i1 %.not35, label %33, label %31

31:                                               ; preds = %26
  %32 = load ptr, ptr %0, align 8, !tbaa !29
  tail call void (ptr, i32, ptr, ...) @av_log(ptr noundef %32, i32 noundef 48, ptr noundef nonnull @.str.21) #8
  br label %88

33:                                               ; preds = %26
  %spec.store.select = tail call i32 @llvm.umax.i32(i32 %1, i32 1)
  %34 = load i32, ptr %2, align 8, !tbaa !62
  %.not.i = icmp eq i32 %34, 0
  br i1 %.not.i, label %get_bits_long.exit, label %35

35:                                               ; preds = %33
  %36 = icmp slt i32 %34, 26
  %37 = lshr i32 %spec.select.i, 3
  %38 = zext nneg i32 %37 to i64
  %39 = getelementptr inbounds nuw i8, ptr %13, i64 %38
  %40 = load i32, ptr %39, align 1, !tbaa !55
  %41 = tail call i32 @llvm.bswap.i32(i32 %40)
  %42 = and i32 %spec.select.i, 7
  %43 = shl i32 %41, %42
  br i1 %36, label %44, label %49

44:                                               ; preds = %35
  %45 = sub nsw i32 32, %34
  %46 = lshr i32 %43, %45
  %47 = add i32 %34, %spec.select.i
  %48 = tail call i32 @llvm.umin.i32(i32 %19, i32 %47)
  store i32 %48, ptr %11, align 8, !tbaa !61
  br label %get_bits_long.exit

49:                                               ; preds = %35
  %50 = lshr i32 %43, 16
  %51 = add i32 %spec.select.i, 16
  %52 = tail call i32 @llvm.umin.i32(i32 %19, i32 %51)
  store i32 %52, ptr %11, align 8, !tbaa !61
  %53 = add nsw i32 %34, -16
  %54 = shl i32 %50, %53
  %55 = lshr i32 %52, 3
  %56 = zext nneg i32 %55 to i64
  %57 = getelementptr inbounds nuw i8, ptr %13, i64 %56
  %58 = load i32, ptr %57, align 1, !tbaa !55
  %59 = tail call i32 @llvm.bswap.i32(i32 %58)
  %60 = and i32 %52, 7
  %61 = shl i32 %59, %60
  %62 = sub nsw i32 48, %34
  %63 = lshr i32 %61, %62
  %64 = add i32 %53, %52
  %65 = tail call i32 @llvm.umin.i32(i32 %19, i32 %64)
  store i32 %65, ptr %11, align 8, !tbaa !61
  %66 = or i32 %63, %54
  br label %get_bits_long.exit

get_bits_long.exit:                               ; preds = %33, %44, %49
  %.0.i = phi i32 [ %46, %44 ], [ %66, %49 ], [ 0, %33 ]
  %67 = getelementptr inbounds nuw i8, ptr %2, i64 24
  %68 = load ptr, ptr %67, align 8, !tbaa !69
  %69 = sext i32 %28 to i64
  %70 = getelementptr inbounds i32, ptr %68, i64 %69
  store i32 %.0.i, ptr %70, align 4, !tbaa !56
  %71 = trunc i32 %spec.store.select to i8
  %72 = getelementptr inbounds nuw i8, ptr %2, i64 32
  %73 = load ptr, ptr %72, align 8, !tbaa !70
  %74 = load i32, ptr %27, align 8, !tbaa !67
  %75 = sext i32 %74 to i64
  %76 = getelementptr inbounds i8, ptr %73, i64 %75
  store i8 %71, ptr %76, align 1, !tbaa !55
  %77 = load i32, ptr %27, align 8, !tbaa !67
  %78 = add nsw i32 %77, 1
  store i32 %78, ptr %27, align 8, !tbaa !67
  br label %88

79:                                               ; preds = %9
  %80 = add nsw i32 %1, 1
  %81 = tail call fastcc i32 @tm2_read_tree(ptr noundef nonnull %0, i32 noundef %80, ptr noundef %2)
  %82 = icmp slt i32 %81, 0
  br i1 %82, label %88, label %83

83:                                               ; preds = %79
  %84 = tail call fastcc i32 @tm2_read_tree(ptr noundef nonnull %0, i32 noundef %80, ptr noundef %2)
  %85 = icmp slt i32 %84, 0
  br i1 %85, label %88, label %86

86:                                               ; preds = %83
  %87 = tail call i32 @llvm.umax.i32(i32 %84, i32 %81)
  br label %88

88:                                               ; preds = %83, %79, %86, %get_bits_long.exit, %31, %7
  %.0 = phi i32 [ -1094995529, %7 ], [ %87, %86 ], [ -1094995529, %31 ], [ %spec.store.select, %get_bits_long.exit ], [ %81, %79 ], [ %84, %83 ]
  ret i32 %.0
}